; Function Attrs: nofree norecurse nosync nounwind memory(readwrite, inaccessiblemem: none) uwtable
define dso_local void @strbuf_trim(ptr noundef captures(none) %0) local_unnamed_addr #9 {
  %2 = getelementptr inbounds nuw i8, ptr %0, i64 8
  %.promoted.i = load i64, ptr %2, align 8, !tbaa !16
  %.not7.i = icmp eq i64 %.promoted.i, 0
  %.phi.trans.insert.i = getelementptr inbounds nuw i8, ptr %0, i64 16
  %.pre.i = load ptr, ptr %.phi.trans.insert.i, align 8, !tbaa !12
  br i1 %.not7.i, label %strbuf_rtrim.exit, label %.lr.ph.i

.lr.ph.i:                                         ; preds = %1
  %invariant.gep.i = getelementptr i8, ptr %.pre.i, i64 -1
  br label %3

3:                                                ; preds = %10, %.lr.ph.i
  %4 = phi i64 [ %.promoted.i, %.lr.ph.i ], [ %11, %10 ]
  %gep.i = getelementptr i8, ptr %invariant.gep.i, i64 %4
  %5 = load i8, ptr %gep.i, align 1, !tbaa !4
  %6 = zext i8 %5 to i64
  %7 = getelementptr inbounds nuw [256 x i8], ptr @sane_ctype, i64 0, i64 %6
  %8 = load i8, ptr %7, align 1, !tbaa !4
  %9 = and i8 %8, 1
  %.not6.i = icmp eq i8 %9, 0
  br i1 %.not6.i, label %strbuf_rtrim.exit, label %10

10:                                               ; preds = %3
  %11 = add i64 %4, -1
  store i64 %11, ptr %2, align 8, !tbaa !16
  %.not.i = icmp eq i64 %11, 0
  br i1 %.not.i, label %strbuf_rtrim.exit, label %3, !llvm.loop !18

strbuf_rtrim.exit:                                ; preds = %3, %10, %1
  %.lcssa.i = phi i64 [ 0, %1 ], [ %4, %3 ], [ 0, %10 ]
  %12 = getelementptr inbounds nuw i8, ptr %.pre.i, i64 %.lcssa.i
  store i8 0, ptr %12, align 1, !tbaa !4
  %13 = load ptr, ptr %.phi.trans.insert.i, align 8, !tbaa !12
  %.promoted.i2 = load i64, ptr %2, align 8, !tbaa !16
  %.not13.i = icmp eq i64 %.promoted.i2, 0
  br i1 %.not13.i, label %strbuf_ltrim.exit, label %.lr.ph.preheader.i

.lr.ph.preheader.i:                               ; preds = %strbuf_rtrim.exit
  %scevgep.i = getelementptr i8, ptr %13, i64 %.promoted.i2
  br label %.lr.ph.i3

.lr.ph.i3:                                        ; preds = %20, %.lr.ph.preheader.i
  %.014.i = phi ptr [ %21, %20 ], [ %13, %.lr.ph.preheader.i ]
  %14 = phi i64 [ %22, %20 ], [ %.promoted.i2, %.lr.ph.preheader.i ]
  %15 = load i8, ptr %.014.i, align 1, !tbaa !4
  %16 = zext i8 %15 to i64
  %17 = getelementptr inbounds nuw [256 x i8], ptr @sane_ctype, i64 0, i64 %16
  %18 = load i8, ptr %17, align 1, !tbaa !4
  %19 = and i8 %18, 1
  %.not11.i = icmp eq i8 %19, 0
  br i1 %.not11.i, label %strbuf_ltrim.exit, label %20

20:                                               ; preds = %.lr.ph.i3
  %21 = getelementptr inbounds nuw i8, ptr %.014.i, i64 1
  %22 = add i64 %14, -1
  store i64 %22, ptr %2, align 8, !tbaa !16
  %.not.i4 = icmp eq i64 %22, 0
  br i1 %.not.i4, label %strbuf_ltrim.exit, label %.lr.ph.i3, !llvm.loop !19

strbuf_ltrim.exit:                                ; preds = %.lr.ph.i3, %20, %strbuf_rtrim.exit
  %.0.lcssa.i = phi ptr [ %13, %strbuf_rtrim.exit ], [ %.014.i, %.lr.ph.i3 ], [ %scevgep.i, %20 ]
  %.lcssa.i5 = phi i64 [ 0, %strbuf_rtrim.exit ], [ %14, %.lr.ph.i3 ], [ 0, %20 ]
  tail call void @llvm.memmove.p0.p0.i64(ptr align 1 %13, ptr align 1 %.0.lcssa.i, i64 %.lcssa.i5, i1 false)
  %23 = load ptr, ptr %.phi.trans.insert.i, align 8, !tbaa !12
  %24 = load i64, ptr %2, align 8, !tbaa !16
  %25 = getelementptr inbounds nuw i8, ptr %23, i64 %24
  store i8 0, ptr %25, align 1, !tbaa !4
  ret void
}